
LCD12864.elf:     file format elf32-avr

Sections:
Idx Name          Size      VMA       LMA       File off  Algn
  0 .text         00000f6a  00000000  00000000  00000054  2**1
                  CONTENTS, ALLOC, LOAD, READONLY, CODE
  1 .data         00000000  00800060  00800060  00000fbe  2**0
                  CONTENTS, ALLOC, LOAD, DATA
  2 .comment      00000030  00000000  00000000  00000fbe  2**0
                  CONTENTS, READONLY
  3 .note.gnu.avr.deviceinfo 0000003c  00000000  00000000  00000ff0  2**2
                  CONTENTS, READONLY
  4 .debug_aranges 00000198  00000000  00000000  0000102c  2**0
                  CONTENTS, READONLY, DEBUGGING
  5 .debug_info   000046d0  00000000  00000000  000011c4  2**0
                  CONTENTS, READONLY, DEBUGGING
  6 .debug_abbrev 000009ab  00000000  00000000  00005894  2**0
                  CONTENTS, READONLY, DEBUGGING
  7 .debug_line   00001313  00000000  00000000  0000623f  2**0
                  CONTENTS, READONLY, DEBUGGING
  8 .debug_frame  000004c8  00000000  00000000  00007554  2**2
                  CONTENTS, READONLY, DEBUGGING
  9 .debug_str    000006bf  00000000  00000000  00007a1c  2**0
                  CONTENTS, READONLY, DEBUGGING
 10 .debug_loc    00001cf8  00000000  00000000  000080db  2**0
                  CONTENTS, READONLY, DEBUGGING
 11 .debug_ranges 000001a8  00000000  00000000  00009dd3  2**0
                  CONTENTS, READONLY, DEBUGGING

Disassembly of section .text:

00000000 <__vectors>:
   0:	0c 94 2a 06 	jmp	0xc54	; 0xc54 <__ctors_end>
   4:	0c 94 47 06 	jmp	0xc8e	; 0xc8e <__bad_interrupt>
   8:	0c 94 47 06 	jmp	0xc8e	; 0xc8e <__bad_interrupt>
   c:	0c 94 47 06 	jmp	0xc8e	; 0xc8e <__bad_interrupt>
  10:	0c 94 47 06 	jmp	0xc8e	; 0xc8e <__bad_interrupt>
  14:	0c 94 47 06 	jmp	0xc8e	; 0xc8e <__bad_interrupt>
  18:	0c 94 47 06 	jmp	0xc8e	; 0xc8e <__bad_interrupt>
  1c:	0c 94 47 06 	jmp	0xc8e	; 0xc8e <__bad_interrupt>
  20:	0c 94 47 06 	jmp	0xc8e	; 0xc8e <__bad_interrupt>
  24:	0c 94 47 06 	jmp	0xc8e	; 0xc8e <__bad_interrupt>
  28:	0c 94 47 06 	jmp	0xc8e	; 0xc8e <__bad_interrupt>
  2c:	0c 94 47 06 	jmp	0xc8e	; 0xc8e <__bad_interrupt>
  30:	0c 94 47 06 	jmp	0xc8e	; 0xc8e <__bad_interrupt>
  34:	0c 94 47 06 	jmp	0xc8e	; 0xc8e <__bad_interrupt>
  38:	0c 94 47 06 	jmp	0xc8e	; 0xc8e <__bad_interrupt>
  3c:	0c 94 47 06 	jmp	0xc8e	; 0xc8e <__bad_interrupt>
  40:	0c 94 47 06 	jmp	0xc8e	; 0xc8e <__bad_interrupt>
  44:	0c 94 47 06 	jmp	0xc8e	; 0xc8e <__bad_interrupt>
  48:	0c 94 47 06 	jmp	0xc8e	; 0xc8e <__bad_interrupt>
  4c:	0c 94 47 06 	jmp	0xc8e	; 0xc8e <__bad_interrupt>
  50:	0c 94 47 06 	jmp	0xc8e	; 0xc8e <__bad_interrupt>

00000054 <__trampolines_end>:
	...
  dc:	00 00       	nop
  de:	00 80       	ld	r0, Z
  e0:	80 80       	ld	r8, Z
  e2:	80 80       	ld	r8, Z
  e4:	80 80       	ld	r8, Z
  e6:	80 80       	ld	r8, Z
  e8:	80 80       	ld	r8, Z
  ea:	80 80       	ld	r8, Z
  ec:	00 00       	nop
  ee:	00 00       	nop
  f0:	00 00       	nop
  f2:	80 c0       	rjmp	.+256    	; 0x1f4 <__trampolines_end+0x1a0>
  f4:	c0 c0       	rjmp	.+384    	; 0x276 <__trampolines_end+0x222>
  f6:	c0 c0       	rjmp	.+384    	; 0x278 <__trampolines_end+0x224>
  f8:	c0 c0       	rjmp	.+384    	; 0x27a <__trampolines_end+0x226>
  fa:	c0 c0       	rjmp	.+384    	; 0x27c <__trampolines_end+0x228>
  fc:	c0 c0       	rjmp	.+384    	; 0x27e <__trampolines_end+0x22a>
  fe:	80 80       	ld	r8, Z
	...
 10c:	00 80       	ld	r0, Z
 10e:	80 c0       	rjmp	.+256    	; 0x210 <__trampolines_end+0x1bc>
 110:	c0 60       	ori	r28, 0x00	; 0
 112:	60 20       	and	r6, r0
 114:	30 30       	cpi	r19, 0x00	; 0
 116:	10 10       	cpse	r1, r0
 118:	18 18       	sub	r1, r8
 11a:	08 08       	sbc	r0, r8
 11c:	08 0c       	add	r0, r8
 11e:	0c 0c       	add	r0, r12
 120:	04 04       	cpc	r0, r4
 122:	04 04       	cpc	r0, r4
 124:	04 04       	cpc	r0, r4
 126:	84 84       	ldd	r8, Z+12	; 0x0c
 128:	84 84       	ldd	r8, Z+12	; 0x0c
 12a:	84 04       	cpc	r8, r4
 12c:	04 0c       	add	r0, r4
 12e:	0c 0c       	add	r0, r12
 130:	08 08       	sbc	r0, r8
 132:	08 08       	sbc	r0, r8
 134:	18 18       	sub	r1, r8
 136:	10 38       	cpi	r17, 0x80	; 128
 138:	38 38       	cpi	r19, 0x88	; 136
 13a:	78 78       	andi	r23, 0x88	; 136
 13c:	7c fc       	.word	0xfc7c	; ????
 13e:	fc fc       	.word	0xfcfc	; ????
 140:	fc fc       	.word	0xfcfc	; ????
 142:	fc fc       	.word	0xfcfc	; ????
 144:	fc fc       	.word	0xfcfc	; ????
 146:	fc f8       	.word	0xf8fc	; ????
 148:	f8 f8       	.word	0xf8f8	; ????
 14a:	f8 f8       	.word	0xf8f8	; ????
 14c:	f0 f0       	brcs	.+60     	; 0x18a <__trampolines_end+0x136>
 14e:	f0 e0       	ldi	r31, 0x00	; 0
 150:	e0 c0       	rjmp	.+448    	; 0x312 <__trampolines_end+0x2be>
 152:	80 80       	ld	r8, Z
 154:	00 00       	nop
 156:	f0 f8       	bld	r15, 0
 158:	bc 1e       	adc	r11, r28
 15a:	0e 0f       	add	r16, r30
 15c:	07 07       	cpc	r16, r23
 15e:	07 03       	mulsu	r16, r23
 160:	03 03       	mulsu	r16, r19
 162:	03 03       	mulsu	r16, r19
 164:	03 03       	mulsu	r16, r19
 166:	07 07       	cpc	r16, r23
 168:	07 07       	cpc	r16, r23
 16a:	0f 1f       	adc	r16, r31
 16c:	bf ff       	.word	0xffbf	; ????
 16e:	ff ff       	.word	0xffff	; ????
 170:	fe ff       	.word	0xfffe	; ????
 172:	ff ff       	.word	0xffff	; ????
 174:	ff ff       	.word	0xffff	; ????
 176:	7f 7f       	andi	r23, 0xFF	; 255
 178:	ff ff       	.word	0xffff	; ????
 17a:	ff ff       	.word	0xffff	; ????
 17c:	ff ff       	.word	0xffff	; ????
 17e:	ff ff       	.word	0xffff	; ????
 180:	ff ff       	.word	0xffff	; ????
 182:	ff fe       	.word	0xfeff	; ????
 184:	fe 7c       	andi	r31, 0xCE	; 206
 186:	3c 18       	sub	r3, r12
 188:	0c 06       	cpc	r0, r28
 18a:	06 03       	mulsu	r16, r22
 18c:	01 01       	movw	r0, r2
 18e:	00 00       	nop
 190:	00 00       	nop
 192:	00 00       	nop
 194:	00 70       	andi	r16, 0x00	; 0
 196:	f0 f8       	bld	r15, 0
 198:	f8 fc       	.word	0xfcf8	; ????
 19a:	fc fc       	.word	0xfcfc	; ????
 19c:	fe fe       	.word	0xfefe	; ????
 19e:	fe fe       	.word	0xfefe	; ????
 1a0:	ff ff       	.word	0xffff	; ????
 1a2:	ff ff       	.word	0xffff	; ????
 1a4:	ff ff       	.word	0xffff	; ????
 1a6:	ff ff       	.word	0xffff	; ????
 1a8:	ff ff       	.word	0xffff	; ????
 1aa:	ff ff       	.word	0xffff	; ????
 1ac:	ff ff       	.word	0xffff	; ????
 1ae:	ff ff       	.word	0xffff	; ????
 1b0:	fe fe       	.word	0xfefe	; ????
 1b2:	fc fc       	.word	0xfcfc	; ????
 1b4:	f8 f0       	brcs	.+62     	; 0x1f4 <__trampolines_end+0x1a0>
 1b6:	e0 e0       	ldi	r30, 0x00	; 0
 1b8:	80 00       	.word	0x0080	; ????
 1ba:	00 00       	nop
 1bc:	00 00       	nop
 1be:	00 01       	movw	r0, r0
 1c0:	01 03       	mulsu	r16, r17
 1c2:	07 07       	cpc	r16, r23
 1c4:	0f 1f       	adc	r16, r31
 1c6:	3f 7f       	andi	r19, 0xFF	; 255
 1c8:	ff ff       	.word	0xffff	; ????
 1ca:	ff ff       	.word	0xffff	; ????
 1cc:	ff ff       	.word	0xffff	; ????
 1ce:	ff ff       	.word	0xffff	; ????
 1d0:	ff ff       	.word	0xffff	; ????
 1d2:	7f 3f       	cpi	r23, 0xFF	; 255
 1d4:	00 00       	nop
 1d6:	01 03       	mulsu	r16, r17
 1d8:	07 c7       	rjmp	.+3598   	; 0xfe8 <_etext+0x7e>
 1da:	fe fe       	.word	0xfefe	; ????
 1dc:	fc 3c       	cpi	r31, 0xCC	; 204
 1de:	1c 1c       	adc	r1, r12
 1e0:	18 18       	sub	r1, r8
 1e2:	18 18       	sub	r1, r8
 1e4:	38 38       	cpi	r19, 0x88	; 136
 1e6:	3c 3c       	cpi	r19, 0xCC	; 204
 1e8:	1c 1e       	adc	r1, r28
 1ea:	1e 1f       	adc	r17, r30
 1ec:	1f 1f       	adc	r17, r31
 1ee:	1f 0f       	add	r17, r31
 1f0:	0f 0f       	add	r16, r31
 1f2:	07 03       	mulsu	r16, r23
 1f4:	03 00       	.word	0x0003	; ????
 1f6:	00 00       	nop
 1f8:	00 00       	nop
 1fa:	00 01       	movw	r0, r0
 1fc:	01 01       	movw	r0, r2
 1fe:	03 03       	mulsu	r16, r19
 200:	e3 ff       	sbrs	r30, 3
 202:	0f 03       	fmul	r16, r23
	...
 210:	e0 f0       	brcs	.+56     	; 0x24a <__trampolines_end+0x1f6>
 212:	30 30       	cpi	r19, 0x00	; 0
 214:	10 00       	.word	0x0010	; ????
 216:	81 c3       	rjmp	.+1794   	; 0x91a <anime+0xc6>
 218:	c3 e7       	ldi	r28, 0x73	; 115
 21a:	e7 c7       	rjmp	.+4046   	; 0x11ea <_etext+0x280>
 21c:	c7 8f       	std	Z+31, r28	; 0x1f
 21e:	0f 0f       	add	r16, r31
 220:	0f 0f       	add	r16, r31
 222:	0f 0f       	add	r16, r31
 224:	1f 1f       	adc	r17, r31
 226:	1f 1f       	adc	r17, r31
 228:	1f 1f       	adc	r17, r31
 22a:	1f 1f       	adc	r17, r31
 22c:	1f 1f       	adc	r17, r31
 22e:	1f 1f       	adc	r17, r31
 230:	1f 1f       	adc	r17, r31
 232:	1f 1f       	adc	r17, r31
 234:	1f 1f       	adc	r17, r31
 236:	0f 0f       	add	r16, r31
 238:	07 03       	mulsu	r16, r23
	...
 246:	00 00       	nop
 248:	00 03       	mulsu	r16, r16
 24a:	0f ff       	.word	0xff0f	; ????
 24c:	f3 03       	fmuls	r23, r19
 24e:	01 01       	movw	r0, r2
	...
 258:	00 8f       	std	Z+24, r16	; 0x18
 25a:	bf ff       	.word	0xffbf	; ????
 25c:	ff f0       	brie	.+62     	; 0x29c <__trampolines_end+0x248>
 25e:	e0 e0       	ldi	r30, 0x00	; 0
 260:	e0 e0       	ldi	r30, 0x00	; 0
 262:	e0 e0       	ldi	r30, 0x00	; 0
 264:	e0 e0       	ldi	r30, 0x00	; 0
 266:	e0 e0       	ldi	r30, 0x00	; 0
 268:	e0 e0       	ldi	r30, 0x00	; 0
 26a:	e0 e0       	ldi	r30, 0x00	; 0
 26c:	e0 e0       	ldi	r30, 0x00	; 0
 26e:	c0 c0       	rjmp	.+384    	; 0x3f0 <__trampolines_end+0x39c>
 270:	c0 80       	ld	r12, Z
 272:	80 00       	.word	0x0080	; ????
	...
 280:	0f 7f       	andi	r16, 0xFF	; 255
 282:	f0 c0       	rjmp	.+480    	; 0x464 <__stack+0x5>
	...
 290:	0f 1f       	adc	r16, r31
 292:	19 11       	cpse	r17, r9
 294:	11 01       	movw	r2, r2
 296:	03 87       	std	Z+11, r16	; 0x0b
 298:	cf cf       	rjmp	.-98     	; 0x238 <__trampolines_end+0x1e4>
 29a:	cf ed       	ldi	r28, 0xDF	; 223
 29c:	e7 e3       	ldi	r30, 0x37	; 55
 29e:	e0 e0       	ldi	r30, 0x00	; 0
 2a0:	e0 f0       	brcs	.+56     	; 0x2da <__trampolines_end+0x286>
 2a2:	f0 f0       	brcs	.+60     	; 0x2e0 <__trampolines_end+0x28c>
 2a4:	f0 f0       	brcs	.+60     	; 0x2e2 <__trampolines_end+0x28e>
 2a6:	f0 f0       	brcs	.+60     	; 0x2e4 <__trampolines_end+0x290>
 2a8:	f0 f0       	brcs	.+60     	; 0x2e6 <__trampolines_end+0x292>
 2aa:	f0 f0       	brcs	.+60     	; 0x2e8 <__trampolines_end+0x294>
 2ac:	f8 78       	andi	r31, 0x88	; 136
 2ae:	f8 f8       	.word	0xf8f8	; ????
 2b0:	f0 f0       	brcs	.+60     	; 0x2ee <__trampolines_end+0x29a>
 2b2:	f0 f0       	brcs	.+60     	; 0x2f0 <__trampolines_end+0x29c>
 2b4:	f0 f0       	brcs	.+60     	; 0x2f2 <__trampolines_end+0x29e>
 2b6:	f0 e0       	ldi	r31, 0x00	; 0
 2b8:	e0 c0       	rjmp	.+448    	; 0x47a <__stack+0x1b>
	...
 2c6:	00 00       	nop
 2c8:	00 80       	ld	r0, Z
 2ca:	e0 ff       	sbrs	r30, 0
 2cc:	9f 00       	.word	0x009f	; ????
	...
 2d6:	7e ff       	.word	0xff7e	; ????
 2d8:	e7 c3       	rjmp	.+1998   	; 0xaa8 <anime+0x254>
 2da:	83 81       	ldd	r24, Z+3	; 0x03
 2dc:	01 01       	movw	r0, r2
	...
 2e6:	00 01       	movw	r0, r0
 2e8:	01 81       	ldd	r16, Z+1	; 0x01
 2ea:	83 c3       	rjmp	.+1798   	; 0x9f2 <anime+0x19e>
 2ec:	e7 ff       	sbrs	r30, 7
 2ee:	ff ff       	.word	0xffff	; ????
 2f0:	ff ff       	.word	0xffff	; ????
 2f2:	ff ff       	.word	0xffff	; ????
 2f4:	ff fc       	.word	0xfcff	; ????
 2f6:	f0 f8       	bld	r15, 0
 2f8:	f8 fc       	.word	0xfcf8	; ????
 2fa:	fc fe       	.word	0xfefc	; ????
 2fc:	fe fe       	.word	0xfefe	; ????
 2fe:	ff ff       	.word	0xffff	; ????
 300:	ff ff       	.word	0xffff	; ????
 302:	ff ff       	.word	0xffff	; ????
 304:	ff fe       	.word	0xfeff	; ????
 306:	fc f8       	.word	0xf8fc	; ????
 308:	70 60       	ori	r23, 0x00	; 0
 30a:	c0 c0       	rjmp	.+384    	; 0x48c <__stack+0x2d>
 30c:	80 00       	.word	0x0080	; ????
 30e:	00 00       	nop
 310:	00 00       	nop
 312:	00 00       	nop
 314:	00 0e       	add	r0, r16
 316:	1f 1f       	adc	r17, r31
 318:	3f 3f       	cpi	r19, 0xFF	; 255
 31a:	7f 7f       	andi	r23, 0xFF	; 255
 31c:	7f 7f       	andi	r23, 0xFF	; 255
 31e:	ff ff       	.word	0xffff	; ????
 320:	ff ff       	.word	0xffff	; ????
 322:	ff ff       	.word	0xffff	; ????
 324:	ff ff       	.word	0xffff	; ????
 326:	ff ff       	.word	0xffff	; ????
 328:	ff ff       	.word	0xffff	; ????
 32a:	ff ff       	.word	0xffff	; ????
 32c:	ff ff       	.word	0xffff	; ????
 32e:	ff ff       	.word	0xffff	; ????
 330:	ff 7f       	andi	r31, 0xFF	; 255
 332:	7f 3f       	cpi	r23, 0xFF	; 255
 334:	3f 1f       	adc	r19, r31
 336:	0f 07       	cpc	r16, r31
 338:	03 00       	.word	0x0003	; ????
 33a:	00 00       	nop
 33c:	00 00       	nop
 33e:	00 00       	nop
 340:	80 80       	ld	r8, Z
 342:	c0 e0       	ldi	r28, 0x00	; 0
 344:	f0 f0       	brcs	.+60     	; 0x382 <__trampolines_end+0x32e>
 346:	f8 fc       	.word	0xfcf8	; ????
 348:	ff ff       	.word	0xffff	; ????
 34a:	ff ff       	.word	0xffff	; ????
 34c:	ff ff       	.word	0xffff	; ????
 34e:	ff ff       	.word	0xffff	; ????
 350:	fe fe       	.word	0xfefe	; ????
 352:	fc f8       	.word	0xf8fc	; ????
 354:	00 00       	nop
 356:	00 00       	nop
 358:	00 01       	movw	r0, r0
 35a:	01 03       	mulsu	r16, r17
 35c:	03 03       	mulsu	r16, r19
 35e:	03 07       	cpc	r16, r19
 360:	07 07       	cpc	r16, r23
 362:	07 07       	cpc	r16, r23
 364:	07 07       	cpc	r16, r23
 366:	07 07       	cpc	r16, r23
 368:	07 07       	cpc	r16, r23
 36a:	07 07       	cpc	r16, r23
 36c:	07 03       	mulsu	r16, r23
 36e:	03 03       	mulsu	r16, r19
 370:	03 01       	movw	r0, r6
 372:	03 07       	cpc	r16, r19
 374:	07 07       	cpc	r16, r23
 376:	0f 0f       	add	r16, r31
 378:	0f 0f       	add	r16, r31
 37a:	07 07       	cpc	r16, r23
 37c:	07 07       	cpc	r16, r23
 37e:	07 03       	mulsu	r16, r23
 380:	03 03       	mulsu	r16, r19
 382:	01 01       	movw	r0, r2
 384:	01 00       	.word	0x0001	; ????
 386:	00 00       	nop
 388:	00 00       	nop
 38a:	00 00       	nop
 38c:	01 01       	movw	r0, r2
 38e:	03 02       	muls	r16, r19
 390:	06 06       	cpc	r0, r22
 392:	04 0c       	add	r0, r4
 394:	0c 08       	sbc	r0, r12
 396:	18 18       	sub	r1, r8
 398:	10 10       	cpse	r1, r0
 39a:	30 30       	cpi	r19, 0x00	; 0
 39c:	30 20       	and	r3, r0
 39e:	20 20       	and	r2, r0
 3a0:	20 21       	and	r18, r0
 3a2:	61 61       	ori	r22, 0x11	; 17
 3a4:	61 61       	ori	r22, 0x11	; 17
 3a6:	61 61       	ori	r22, 0x11	; 17
 3a8:	61 61       	ori	r22, 0x11	; 17
 3aa:	61 21       	and	r22, r1
 3ac:	21 21       	and	r18, r1
 3ae:	20 20       	and	r2, r0
 3b0:	20 30       	cpi	r18, 0x00	; 0
 3b2:	30 10       	cpse	r3, r0
 3b4:	10 18       	sub	r1, r0
 3b6:	38 38       	cpi	r19, 0x88	; 136
 3b8:	38 3c       	cpi	r19, 0xC8	; 200
 3ba:	7c 7c       	andi	r23, 0xCC	; 204
 3bc:	7e 7e       	andi	r23, 0xEE	; 238
 3be:	7f 7f       	andi	r23, 0xFF	; 255
 3c0:	7f 7f       	andi	r23, 0xFF	; 255
 3c2:	7f 7f       	andi	r23, 0xFF	; 255
 3c4:	7f 7f       	andi	r23, 0xFF	; 255
 3c6:	7f 7f       	andi	r23, 0xFF	; 255
 3c8:	7f 3f       	cpi	r23, 0xFF	; 255
 3ca:	3f 3f       	cpi	r19, 0xFF	; 255
 3cc:	3f 1f       	adc	r19, r31
 3ce:	1f 1f       	adc	r17, r31
 3d0:	0f 07       	cpc	r16, r31
 3d2:	07 03       	mulsu	r16, r23
	...

00000454 <anime_1>:
	...
 460:	80 80 80 80 80 c0 c0 e0 e0 e0 e0 60 60 60 e0 c0     ...........```..
 470:	c0 c0 c0 80 80 00 00 00 00 00 00 00 00 00 00 00     ................
	...
 4e0:	f7 f7 f7 f7 f7 ff ff ff ff 7f 7f 7f 7f 7f 7f 7e     ...............~
 4f0:	7e 7e 7c 7c 7d fd fb fb fe f6 fe fc fc fc f8 f8     ~~||}...........
 500:	f8 f0 78 f8 78 f8 f0 f0 f0 f0 f0 f0 e0 e0 f0 f0     ..x.x...........
 510:	d8 d8 d8 d8 d8 d8 d8 d8 d8 d8 d8 f0 f0 f0 f0 f0     ................
 520:	e0 e0 e0 e0 c0 c0 c0 c0 c0 80 80 80 80 80 80 00     ................
	...
 560:	81 81 c0 c0 c0 c0 c0 e0 e0 e0 e0 70 70 f8 f8 b8     ...........pp...
 570:	bc fc dc fe ee ee ff f7 ff fb ff ff fe fe fe ff     ................
 580:	ff ff ff ff ff ff ff ff bf ff ff 7f 7f 7f 7f 7f     ................
 590:	7f 3f bf ff ff ff ff ff ff ff ff ff ff ff ff ff     .?..............
 5a0:	ff ff ff ff ff ff ff ff ff ff ff ff ff ff ff ff     ................
 5b0:	ff ff fe fe fe fe fc fc fc f8 f8 f0 e0 e0 e0 c0     ................
 5c0:	80 00 00 00 00 00 00 00 00 00 00 00 00 00 00 00     ................
	...
 5e0:	85 85 87 27 43 c3 82 32 62 43 8b 9b b3 f7 e7 cf     ...'C..2bC......
 5f0:	cf df ff cf 8f 8f 07 07 0f 0f 0f 1f 1f 1f 9f df     ................
 600:	7f 3f 0f 07 03 03 81 81 00 00 00 00 00 00 00 00     .?..............
 610:	06 0e 0a 19 13 1b 1f 1f 1f 1f 2f 3f 3f 3f 1f 0e     ........../???..
 620:	18 0a 02 06 07 97 bf ff ff ff ff ff ff ff ff ff     ................
 630:	ff ff ff ff ff ff ff ff ff ff ff ff ff ff ff ff     ................
 640:	ff ff fe fc c0 00 00 00 00 00 00 00 00 00 00 00     ................
	...
 660:	61 67 63 43 ca ce c7 c3 d9 c9 e7 e7 f3 fb fe ff     agcC............
 670:	ff fc fe f7 e7 e3 e0 e0 f0 f0 f8 f8 f8 f8 fb fe     ................
 680:	fc f8 e0 c0 c0 80 83 01 00 00 00 00 00 00 00 00     ................
 690:	c0 e0 90 90 80 98 f8 f8 f8 f0 f0 f8 f8 f8 f8 70     ...............p
 6a0:	08 40 40 c0 c0 c6 e7 ff fb ff ff ff ff ff ff ff     .@@.............
 6b0:	ff ff ff ff ff ff ff ff ff ff ff ff ff ff ff ff     ................
 6c0:	ff ff ff 7f 00 00 00 00 00 00 00 00 00 00 00 00     ................
	...
 6e0:	83 03 03 03 07 07 87 86 86 ce ce 6f 6f 6f 7d 7d     ...........ooo}}
 6f0:	3f 3f 3b 3f 3f 3f ff ff ff ff ff ff ff ff ff ff     ??;???..........
 700:	7f bf bf ff ff 3f 3f ff ff fe fe fe fe fe fc fc     .....??.........
 710:	fc fd fe ff fb ff ff ff fb fb ff ff ff ff fe fe     ................
 720:	fe fe fe ff ff ff ff ff ff ff ff ff ff ff ff ff     ................
 730:	ff ff 7e 7f 7f 7f 7f 3f 3f 3f 1f 1f 0f 0f 07 07     ..~....???......
 740:	03 01 00 00 00 00 00 00 00 00 00 00 00 00 00 00     ................
	...
 760:	ff ff ff ff ff ff ff ff ff fe fe fe fe fe fe fe     ................
 770:	fe 7e 7e fe fe ff ff 7f 3f 3f 1f 1f 0f 0f 07 07     .~~.....??......
 780:	0e 0f 0f 0f 0f 0e 0f 0d 0d 0d 0d 0d 0d 0d 0d 3d     ...............=
 790:	3d 2d 67 67 67 67 66 66 27 33 33 33 1b 1b 1b 0f     =-ggggff'333....
 7a0:	0f 0f 07 07 07 07 03 03 03 03 01 01 01 01 00 00     ................
	...
 7e0:	03 03 03 03 03 03 03 07 07 07 07 07 07 07 07 03     ................
 7f0:	03 03 01 01 00 00 00 00 00 00 00 00 00 00 00 00     ................
	...

00000854 <anime>:
	...
 880:	00 10 30 60 c0 c0 80 80 80 00 00 00 00 00 00 00     ..0`............
	...
 8d4:	09 19 11 31 21 22 22 62 42 42 84 84 04 0c 88 88     ...1!""bBB......
 8e4:	88 98 90 b0 f0 f0 f0 e0 60 60 60 60 60 60 60 60     ........````````
 8f4:	60 40 c0 c0 c0 c0 e0 e0 e0 e0 e0 f0 f0 f0 f0 f8     `@..............
 904:	f8 f8 f8 f9 f9 f9 fb fb fb fa fa fa fa fe fe fe     ................
 914:	fe fe ee ee fe be be be be be be be be be bf bf     ................
 924:	be be be be fe fe fe fe fe fe fe fe fc fc fc fc     ................
 934:	fc fc fc fc f8 f8 f8 f8 f8 f8 f0 f0 f0 f0 e0 e0     ................
 944:	e0 e0 c0 c0 80 80 00 00 00 00 00 00 00 00 00 00     ................
 954:	60 20 20 00 20 40 40 40 80 80 80 00 00 00 00 00     `  . @@@........
	...
 970:	00 80 80 00 00 80 c0 80 90 c8 dc 5a 5e 3c 36 37     ...........Z^<67
 980:	3f 17 1f 1f 1f 8f af df df ff ff df ff ff f7 ff     ?...............
 990:	ff 9f 9f df 5f ff ff ef ef bf ff ff ff ff ff ff     ...._...........
 9a0:	ff fb 79 79 29 29 09 89 89 89 89 89 89 8d 9f 9f     ..yy))..........
 9b0:	9f 9f 9f 9f ff ff ff ff ff ff ff ff ff ff ff ff     ................
 9c0:	ff ff ff ff ff ff ff ff ff ff ff ff fe fe fc fc     ................
 9d0:	f8 f0 e0 c0 02 02 02 06 04 04 04 0c 28 18 08 09     ............(...
 9e0:	09 0b 0a 0a 0a 0a 0c 1c 14 14 1c 18 18 18 58 78     ..............Xx
 9f0:	68 a8 f9 19 05 03 03 01 00 00 00 00 00 00 00 00     h...............
 a00:	00 00 00 00 03 00 04 00 07 07 07 07 0f 0f 07 27     ...............'
 a10:	23 a6 86 73 7b 1b 3a 2b 3f ff f7 ff ff ff ff ff     #..s{.:+?.......
 a20:	ff ff c5 85 87 83 03 83 81 81 91 91 81 81 c9 d9     ................
 a30:	ff ff ff ff ff ff ff ff ff ff ff ff ff ff ff ff     ................
 a40:	ff ff ff ff ff ff ff ff ff ff ff ff ff ff ff ff     ................
 a50:	ff ff ff ff 00 00 00 00 00 00 00 00 00 00 00 00     ................
 a60:	00 00 00 01 01 00 00 00 00 00 00 00 00 00 00 00     ................
 a70:	3e 23 60 c0 80 80 00 00 02 03 3e 30 00 00 00 00     >#`.......>0....
	...
 a8c:	00 00 82 8a 8b fa f2 f2 f2 fb fb fb fb ff 7f 7f     ................
 a9c:	7f 7f 7f ff ff ff bf ff ff fb ff f9 f9 f9 f9 98     ................
 aac:	98 98 98 88 88 c8 c8 c8 ef ef ff ff ff ff ff ff     ................
 abc:	ff ff ff ff ff ff ff ff ff ff ff ff ff ff ff ff     ................
 acc:	ff ff ff ff ff ff ff ff 00 00 00 00 00 00 00 00     ................
 adc:	00 00 00 00 00 00 00 80 80 00 00 80 80 40 40 40     .............@@@
 aec:	40 40 40 40 40 40 40 e0 f4 fd ff fe fe fc fc f8     @@@@@@@.........
 afc:	f8 f0 f0 f0 e0 e0 e0 e0 c0 c0 c0 c0 c0 c0 c0 c0     ................
 b0c:	40 c7 c9 c8 cb cf cf cf cf ef ef ef ff ff fe fe     @...............
 b1c:	ee fb ff ff ff ff ff ff ff ff ff ff ff ff ff ff     ................
 b2c:	ff f9 c8 c8 e8 ec ef ff ff ff ff ff ff ff ff ff     ................
 b3c:	ff ff ff ff ff ff ff ff ff ff ff ff 7f 7f 7f 3f     ...............?
 b4c:	1f 1f 0f 0f 07 07 03 00 80 80 c0 e0 60 20 30 10     ............` 0.
 b5c:	18 18 08 08 08 08 0c 0c 04 04 04 04 04 06 02 06     ................
 b6c:	06 06 06 86 e7 7f 5f 5f 7f 7f 7f 7f 3f 3f 3f 3f     ......__....????
 b7c:	3f 3f 3f 3f 3f 3f 3f 3f 3f 3f 3f 3f 3f 3f 3f 3d     ???????????????=
 b8c:	3d 3d 39 39 39 39 39 39 39 39 3b 3f 3d 3f 3f 3f     ==99999999;?=???
 b9c:	3f 3f 3f 3f 3f 3f 3f 3f 3f 3f 3f 3f 3f 3f 3f 3f     ????????????????
 bac:	3f 3f 3f 1f 1f 1f 1f 1f 1f 1f 0f 0f 0f 0f 0f 0f     ???.............
 bbc:	0f 07 07 07 07 03 03 01 01 01 00 00 00 00 00 00     ................
	...
 bd4:	22 21 20 20 20 20 20 20 00 00 00 10 10 10 10 10     "!      ........
 be4:	10 00 08 08 08 08 04 04 02 02 03 01 00 00 00 00     ................
	...

00000c54 <__ctors_end>:
 c54:	11 24       	eor	r1, r1
 c56:	1f be       	out	0x3f, r1	; 63
 c58:	cf e5       	ldi	r28, 0x5F	; 95
 c5a:	d4 e0       	ldi	r29, 0x04	; 4
 c5c:	de bf       	out	0x3e, r29	; 62
 c5e:	cd bf       	out	0x3d, r28	; 61

00000c60 <__do_copy_data>:
 c60:	10 e0       	ldi	r17, 0x00	; 0
 c62:	a0 e6       	ldi	r26, 0x60	; 96
 c64:	b0 e0       	ldi	r27, 0x00	; 0
 c66:	ea e6       	ldi	r30, 0x6A	; 106
 c68:	ff e0       	ldi	r31, 0x0F	; 15
 c6a:	02 c0       	rjmp	.+4      	; 0xc70 <__do_copy_data+0x10>
 c6c:	05 90       	lpm	r0, Z+
 c6e:	0d 92       	st	X+, r0
 c70:	a0 36       	cpi	r26, 0x60	; 96
 c72:	b1 07       	cpc	r27, r17
 c74:	d9 f7       	brne	.-10     	; 0xc6c <__do_copy_data+0xc>

00000c76 <__do_clear_bss>:
 c76:	20 e0       	ldi	r18, 0x00	; 0
 c78:	a0 e6       	ldi	r26, 0x60	; 96
 c7a:	b0 e0       	ldi	r27, 0x00	; 0
 c7c:	01 c0       	rjmp	.+2      	; 0xc80 <.do_clear_bss_start>

00000c7e <.do_clear_bss_loop>:
 c7e:	1d 92       	st	X+, r1

00000c80 <.do_clear_bss_start>:
 c80:	a0 36       	cpi	r26, 0x60	; 96
 c82:	b2 07       	cpc	r27, r18
 c84:	e1 f7       	brne	.-8      	; 0xc7e <.do_clear_bss_loop>
 c86:	0e 94 82 07 	call	0xf04	; 0xf04 <main>
 c8a:	0c 94 b3 07 	jmp	0xf66	; 0xf66 <_exit>

00000c8e <__bad_interrupt>:
 c8e:	0c 94 00 00 	jmp	0	; 0x0 <__vectors>

00000c92 <I2C_Init>:
#define SCL_CLK 100000L
#define BITRATE(TWSR) ((F_CPU/SCL_CLK)-16)/(2*pow(4,(TWSR&((1<<TWPS0)|(1<<TWPS1)))))

void I2C_Init()												/* I2C initialize function */
{
	TWBR = BITRATE(TWSR = 0x00);							/* Get bit rate register value by formula */
 c92:	11 b8       	out	0x01, r1	; 1
 c94:	88 e4       	ldi	r24, 0x48	; 72
 c96:	80 b9       	out	0x00, r24	; 0
 c98:	08 95       	ret

00000c9a <GLCD_Delay>:
			if(x1>=x2)	x = x1 - (y-y1)*(x1-x2)/(y2-y1);
			else x = x1 + (y-y1)*(x2-x1)/(y2-y1);
			GLCD_ClrPixel(x,y);
		}	
	}
 c9a:	85 e0       	ldi	r24, 0x05	; 5
 c9c:	8a 95       	dec	r24
 c9e:	f1 f7       	brne	.-4      	; 0xc9c <GLCD_Delay+0x2>
 ca0:	00 00       	nop
 ca2:	85 e0       	ldi	r24, 0x05	; 5
 ca4:	8a 95       	dec	r24
 ca6:	f1 f7       	brne	.-4      	; 0xca4 <GLCD_Delay+0xa>
 ca8:	00 00       	nop
 caa:	85 e0       	ldi	r24, 0x05	; 5
 cac:	8a 95       	dec	r24
 cae:	f1 f7       	brne	.-4      	; 0xcac <GLCD_Delay+0x12>
 cb0:	00 00       	nop
 cb2:	85 e0       	ldi	r24, 0x05	; 5
 cb4:	8a 95       	dec	r24
 cb6:	f1 f7       	brne	.-4      	; 0xcb4 <GLCD_Delay+0x1a>
 cb8:	00 00       	nop
 cba:	85 e0       	ldi	r24, 0x05	; 5
 cbc:	8a 95       	dec	r24
 cbe:	f1 f7       	brne	.-4      	; 0xcbc <GLCD_Delay+0x22>
 cc0:	00 00       	nop
 cc2:	08 95       	ret

00000cc4 <GLCD_OUT_Set>:
 cc4:	81 b3       	in	r24, 0x11	; 17
 cc6:	88 6f       	ori	r24, 0xF8	; 248
 cc8:	81 bb       	out	0x11, r24	; 17
 cca:	95 98       	cbi	0x12, 5	; 18
 ccc:	8f ef       	ldi	r24, 0xFF	; 255
 cce:	87 bb       	out	0x17, r24	; 23
 cd0:	18 ba       	out	0x18, r1	; 24
 cd2:	08 95       	ret

00000cd4 <GLCD_IN_Set>:
 cd4:	81 b3       	in	r24, 0x11	; 17
 cd6:	88 6f       	ori	r24, 0xF8	; 248
 cd8:	81 bb       	out	0x11, r24	; 17
 cda:	95 98       	cbi	0x12, 5	; 18
 cdc:	17 ba       	out	0x17, r1	; 23
 cde:	8f ef       	ldi	r24, 0xFF	; 255
 ce0:	88 bb       	out	0x18, r24	; 24
 ce2:	08 95       	ret

00000ce4 <GLCD_SetSide>:
 ce4:	cf 93       	push	r28
 ce6:	c8 2f       	mov	r28, r24
 ce8:	0e 94 62 06 	call	0xcc4	; 0xcc4 <GLCD_OUT_Set>
 cec:	c1 30       	cpi	r28, 0x01	; 1
 cee:	19 f4       	brne	.+6      	; 0xcf6 <GLCD_SetSide+0x12>
 cf0:	94 98       	cbi	0x12, 4	; 18
 cf2:	93 9a       	sbi	0x12, 3	; 18
 cf4:	02 c0       	rjmp	.+4      	; 0xcfa <GLCD_SetSide+0x16>
 cf6:	94 9a       	sbi	0x12, 4	; 18
 cf8:	93 98       	cbi	0x12, 3	; 18
 cfa:	0e 94 4d 06 	call	0xc9a	; 0xc9a <GLCD_Delay>
 cfe:	cf 91       	pop	r28
 d00:	08 95       	ret

00000d02 <wait_GLCD>:
 d02:	0e 94 6a 06 	call	0xcd4	; 0xcd4 <GLCD_IN_Set>
 d06:	97 98       	cbi	0x12, 7	; 18
 d08:	96 9a       	sbi	0x12, 6	; 18
 d0a:	95 9a       	sbi	0x12, 5	; 18
 d0c:	0e 94 4d 06 	call	0xc9a	; 0xc9a <GLCD_Delay>
 d10:	95 98       	cbi	0x12, 5	; 18
 d12:	b7 9b       	sbis	0x16, 7	; 22
 d14:	06 c0       	rjmp	.+12     	; 0xd22 <wait_GLCD+0x20>
 d16:	95 9a       	sbi	0x12, 5	; 18
 d18:	0e 94 4d 06 	call	0xc9a	; 0xc9a <GLCD_Delay>
 d1c:	95 98       	cbi	0x12, 5	; 18
 d1e:	b7 99       	sbic	0x16, 7	; 22
 d20:	fa cf       	rjmp	.-12     	; 0xd16 <wait_GLCD+0x14>
 d22:	08 95       	ret

00000d24 <GLCD_SetDISPLAY>:
 d24:	cf 93       	push	r28
 d26:	c8 2f       	mov	r28, r24
 d28:	0e 94 81 06 	call	0xd02	; 0xd02 <wait_GLCD>
 d2c:	0e 94 62 06 	call	0xcc4	; 0xcc4 <GLCD_OUT_Set>
 d30:	97 98       	cbi	0x12, 7	; 18
 d32:	96 98       	cbi	0x12, 6	; 18
 d34:	c2 5c       	subi	r28, 0xC2	; 194
 d36:	c8 bb       	out	0x18, r28	; 24
 d38:	95 9a       	sbi	0x12, 5	; 18
 d3a:	0e 94 4d 06 	call	0xc9a	; 0xc9a <GLCD_Delay>
 d3e:	95 98       	cbi	0x12, 5	; 18
 d40:	cf 91       	pop	r28
 d42:	08 95       	ret

00000d44 <GLCD_SetYADDRESS>:
 d44:	cf 93       	push	r28
 d46:	c8 2f       	mov	r28, r24
 d48:	0e 94 81 06 	call	0xd02	; 0xd02 <wait_GLCD>
 d4c:	0e 94 62 06 	call	0xcc4	; 0xcc4 <GLCD_OUT_Set>
 d50:	97 98       	cbi	0x12, 7	; 18
 d52:	96 98       	cbi	0x12, 6	; 18
 d54:	c0 5c       	subi	r28, 0xC0	; 192
 d56:	c8 bb       	out	0x18, r28	; 24
 d58:	95 9a       	sbi	0x12, 5	; 18
 d5a:	0e 94 4d 06 	call	0xc9a	; 0xc9a <GLCD_Delay>
 d5e:	95 98       	cbi	0x12, 5	; 18
 d60:	cf 91       	pop	r28
 d62:	08 95       	ret

00000d64 <GLCD_SetXADDRESS>:
 d64:	cf 93       	push	r28
 d66:	c8 2f       	mov	r28, r24
 d68:	0e 94 81 06 	call	0xd02	; 0xd02 <wait_GLCD>
 d6c:	0e 94 62 06 	call	0xcc4	; 0xcc4 <GLCD_OUT_Set>
 d70:	97 98       	cbi	0x12, 7	; 18
 d72:	96 98       	cbi	0x12, 6	; 18
 d74:	c8 54       	subi	r28, 0x48	; 72
 d76:	c8 bb       	out	0x18, r28	; 24
 d78:	95 9a       	sbi	0x12, 5	; 18
 d7a:	0e 94 4d 06 	call	0xc9a	; 0xc9a <GLCD_Delay>
 d7e:	95 98       	cbi	0x12, 5	; 18
 d80:	cf 91       	pop	r28
 d82:	08 95       	ret

00000d84 <GLCD_StartLine>:
 d84:	cf 93       	push	r28
 d86:	c8 2f       	mov	r28, r24
 d88:	0e 94 81 06 	call	0xd02	; 0xd02 <wait_GLCD>
 d8c:	0e 94 62 06 	call	0xcc4	; 0xcc4 <GLCD_OUT_Set>
 d90:	97 98       	cbi	0x12, 7	; 18
 d92:	96 98       	cbi	0x12, 6	; 18
 d94:	80 e0       	ldi	r24, 0x00	; 0
 d96:	0e 94 72 06 	call	0xce4	; 0xce4 <GLCD_SetSide>
 d9a:	c0 54       	subi	r28, 0x40	; 64
 d9c:	c8 bb       	out	0x18, r28	; 24
 d9e:	95 9a       	sbi	0x12, 5	; 18
 da0:	0e 94 4d 06 	call	0xc9a	; 0xc9a <GLCD_Delay>
 da4:	95 98       	cbi	0x12, 5	; 18
 da6:	81 e0       	ldi	r24, 0x01	; 1
 da8:	0e 94 72 06 	call	0xce4	; 0xce4 <GLCD_SetSide>
 dac:	95 9a       	sbi	0x12, 5	; 18
 dae:	c8 bb       	out	0x18, r28	; 24
 db0:	0e 94 4d 06 	call	0xc9a	; 0xc9a <GLCD_Delay>
 db4:	95 98       	cbi	0x12, 5	; 18
 db6:	cf 91       	pop	r28
 db8:	08 95       	ret

00000dba <GLCD_WriteDATA>:
 dba:	cf 93       	push	r28
 dbc:	c8 2f       	mov	r28, r24
 dbe:	0e 94 81 06 	call	0xd02	; 0xd02 <wait_GLCD>
 dc2:	0e 94 62 06 	call	0xcc4	; 0xcc4 <GLCD_OUT_Set>
 dc6:	97 9a       	sbi	0x12, 7	; 18
 dc8:	96 98       	cbi	0x12, 6	; 18
 dca:	c8 bb       	out	0x18, r28	; 24
 dcc:	95 9a       	sbi	0x12, 5	; 18
 dce:	0e 94 4d 06 	call	0xc9a	; 0xc9a <GLCD_Delay>
 dd2:	95 98       	cbi	0x12, 5	; 18
 dd4:	0e 94 4d 06 	call	0xc9a	; 0xc9a <GLCD_Delay>
 dd8:	cf 91       	pop	r28
 dda:	08 95       	ret

00000ddc <GLCD_Init>:
 ddc:	80 e0       	ldi	r24, 0x00	; 0
 dde:	0e 94 72 06 	call	0xce4	; 0xce4 <GLCD_SetSide>
 de2:	81 e0       	ldi	r24, 0x01	; 1
 de4:	0e 94 92 06 	call	0xd24	; 0xd24 <GLCD_SetDISPLAY>
 de8:	80 e0       	ldi	r24, 0x00	; 0
 dea:	0e 94 a2 06 	call	0xd44	; 0xd44 <GLCD_SetYADDRESS>
 dee:	80 e0       	ldi	r24, 0x00	; 0
 df0:	0e 94 b2 06 	call	0xd64	; 0xd64 <GLCD_SetXADDRESS>
 df4:	80 e0       	ldi	r24, 0x00	; 0
 df6:	0e 94 c2 06 	call	0xd84	; 0xd84 <GLCD_StartLine>
 dfa:	81 e0       	ldi	r24, 0x01	; 1
 dfc:	0e 94 72 06 	call	0xce4	; 0xce4 <GLCD_SetSide>
 e00:	81 e0       	ldi	r24, 0x01	; 1
 e02:	0e 94 92 06 	call	0xd24	; 0xd24 <GLCD_SetDISPLAY>
 e06:	80 e0       	ldi	r24, 0x00	; 0
 e08:	0e 94 a2 06 	call	0xd44	; 0xd44 <GLCD_SetYADDRESS>
 e0c:	80 e0       	ldi	r24, 0x00	; 0
 e0e:	0e 94 b2 06 	call	0xd64	; 0xd64 <GLCD_SetXADDRESS>
 e12:	80 e0       	ldi	r24, 0x00	; 0
 e14:	0e 94 c2 06 	call	0xd84	; 0xd84 <GLCD_StartLine>
 e18:	08 95       	ret

00000e1a <GLCD_GotoXY>:
 e1a:	1f 93       	push	r17
 e1c:	cf 93       	push	r28
 e1e:	df 93       	push	r29
 e20:	18 2f       	mov	r17, r24
 e22:	d6 2f       	mov	r29, r22
 e24:	c6 2f       	mov	r28, r22
 e26:	c2 95       	swap	r28
 e28:	c6 95       	lsr	r28
 e2a:	c6 95       	lsr	r28
 e2c:	c3 70       	andi	r28, 0x03	; 3
 e2e:	8c 2f       	mov	r24, r28
 e30:	0e 94 72 06 	call	0xce4	; 0xce4 <GLCD_SetSide>
 e34:	8d 2f       	mov	r24, r29
 e36:	90 e4       	ldi	r25, 0x40	; 64
 e38:	c9 9f       	mul	r28, r25
 e3a:	80 19       	sub	r24, r0
 e3c:	11 24       	eor	r1, r1
 e3e:	0e 94 a2 06 	call	0xd44	; 0xd44 <GLCD_SetYADDRESS>
 e42:	81 2f       	mov	r24, r17
 e44:	0e 94 b2 06 	call	0xd64	; 0xd64 <GLCD_SetXADDRESS>
 e48:	df 91       	pop	r29
 e4a:	cf 91       	pop	r28
 e4c:	1f 91       	pop	r17
 e4e:	08 95       	ret

00000e50 <GLCD_Clr>:
 e50:	cf 93       	push	r28
 e52:	df 93       	push	r29
 e54:	d0 e0       	ldi	r29, 0x00	; 0
 e56:	60 e0       	ldi	r22, 0x00	; 0
 e58:	8d 2f       	mov	r24, r29
 e5a:	0e 94 0d 07 	call	0xe1a	; 0xe1a <GLCD_GotoXY>
 e5e:	c0 e4       	ldi	r28, 0x40	; 64
 e60:	80 e0       	ldi	r24, 0x00	; 0
 e62:	0e 94 dd 06 	call	0xdba	; 0xdba <GLCD_WriteDATA>
 e66:	c1 50       	subi	r28, 0x01	; 1
 e68:	d9 f7       	brne	.-10     	; 0xe60 <GLCD_Clr+0x10>
 e6a:	df 5f       	subi	r29, 0xFF	; 255
 e6c:	d8 30       	cpi	r29, 0x08	; 8
 e6e:	99 f7       	brne	.-26     	; 0xe56 <GLCD_Clr+0x6>
 e70:	d0 e0       	ldi	r29, 0x00	; 0
 e72:	60 e4       	ldi	r22, 0x40	; 64
 e74:	8d 2f       	mov	r24, r29
 e76:	0e 94 0d 07 	call	0xe1a	; 0xe1a <GLCD_GotoXY>
 e7a:	c0 e4       	ldi	r28, 0x40	; 64
 e7c:	80 e0       	ldi	r24, 0x00	; 0
 e7e:	0e 94 dd 06 	call	0xdba	; 0xdba <GLCD_WriteDATA>
 e82:	c1 50       	subi	r28, 0x01	; 1
 e84:	d9 f7       	brne	.-10     	; 0xe7c <GLCD_Clr+0x2c>
 e86:	df 5f       	subi	r29, 0xFF	; 255
 e88:	d8 30       	cpi	r29, 0x08	; 8
 e8a:	99 f7       	brne	.-26     	; 0xe72 <GLCD_Clr+0x22>
 e8c:	df 91       	pop	r29
 e8e:	cf 91       	pop	r28
 e90:	08 95       	ret

00000e92 <GLCD_PutBMP>:
 e92:	df 92       	push	r13
 e94:	ef 92       	push	r14
 e96:	ff 92       	push	r15
 e98:	0f 93       	push	r16
 e9a:	1f 93       	push	r17
 e9c:	cf 93       	push	r28
 e9e:	df 93       	push	r29
 ea0:	8c 01       	movw	r16, r24
 ea2:	00 5c       	subi	r16, 0xC0	; 192
 ea4:	1f 4f       	sbci	r17, 0xFF	; 255
 ea6:	d1 2c       	mov	r13, r1
 ea8:	60 e0       	ldi	r22, 0x00	; 0
 eaa:	8d 2d       	mov	r24, r13
 eac:	0e 94 0d 07 	call	0xe1a	; 0xe1a <GLCD_GotoXY>
 eb0:	e8 01       	movw	r28, r16
 eb2:	c0 54       	subi	r28, 0x40	; 64
 eb4:	d1 09       	sbc	r29, r1
 eb6:	fe 01       	movw	r30, r28
 eb8:	84 91       	lpm	r24, Z
 eba:	0e 94 dd 06 	call	0xdba	; 0xdba <GLCD_WriteDATA>
 ebe:	21 96       	adiw	r28, 0x01	; 1
 ec0:	0c 17       	cp	r16, r28
 ec2:	1d 07       	cpc	r17, r29
 ec4:	c1 f7       	brne	.-16     	; 0xeb6 <GLCD_PutBMP+0x24>
 ec6:	60 e4       	ldi	r22, 0x40	; 64
 ec8:	8d 2d       	mov	r24, r13
 eca:	0e 94 0d 07 	call	0xe1a	; 0xe1a <GLCD_GotoXY>
 ece:	78 01       	movw	r14, r16
 ed0:	f0 e4       	ldi	r31, 0x40	; 64
 ed2:	ef 0e       	add	r14, r31
 ed4:	f1 1c       	adc	r15, r1
 ed6:	e8 01       	movw	r28, r16
 ed8:	fe 01       	movw	r30, r28
 eda:	84 91       	lpm	r24, Z
 edc:	0e 94 dd 06 	call	0xdba	; 0xdba <GLCD_WriteDATA>
 ee0:	21 96       	adiw	r28, 0x01	; 1
 ee2:	ce 15       	cp	r28, r14
 ee4:	df 05       	cpc	r29, r15
 ee6:	c1 f7       	brne	.-16     	; 0xed8 <GLCD_PutBMP+0x46>
 ee8:	d3 94       	inc	r13
 eea:	00 58       	subi	r16, 0x80	; 128
 eec:	1f 4f       	sbci	r17, 0xFF	; 255
 eee:	f8 e0       	ldi	r31, 0x08	; 8
 ef0:	df 12       	cpse	r13, r31
 ef2:	da cf       	rjmp	.-76     	; 0xea8 <GLCD_PutBMP+0x16>
 ef4:	df 91       	pop	r29
 ef6:	cf 91       	pop	r28
 ef8:	1f 91       	pop	r17
 efa:	0f 91       	pop	r16
 efc:	ff 90       	pop	r15
 efe:	ef 90       	pop	r14
 f00:	df 90       	pop	r13
 f02:	08 95       	ret

00000f04 <main>:
	rtc.date = 0x01; //1st Jan 2016
	rtc.month = 0x01;
	rtc.year = 0x09;
	rtc.weekDay = 4;
	/*---port---*/
	cbi(DDRA,1);
 f04:	d1 98       	cbi	0x1a, 1	; 26
	cbi(DDRA,2);
 f06:	d2 98       	cbi	0x1a, 2	; 26
	cbi(DDRA,3);
 f08:	d3 98       	cbi	0x1a, 3	; 26
	/*------*/
    GLCD_Init();
 f0a:	0e 94 ee 06 	call	0xddc	; 0xddc <GLCD_Init>
	I2C_Init();
 f0e:	0e 94 49 06 	call	0xc92	; 0xc92 <I2C_Init>
    GLCD_Clr();
 f12:	0e 94 28 07 	call	0xe50	; 0xe50 <GLCD_Clr>
	
	while(1)
	{
		GLCD_PutBMP(anime);
 f16:	84 e5       	ldi	r24, 0x54	; 84
 f18:	98 e0       	ldi	r25, 0x08	; 8
 f1a:	0e 94 49 07 	call	0xe92	; 0xe92 <GLCD_PutBMP>
	#else
		//round up by default
		__ticks_dc = (uint32_t)(ceil(fabs(__tmp)));
	#endif

	__builtin_avr_delay_cycles(__ticks_dc);
 f1e:	2f ef       	ldi	r18, 0xFF	; 255
 f20:	89 e6       	ldi	r24, 0x69	; 105
 f22:	98 e1       	ldi	r25, 0x18	; 24
 f24:	21 50       	subi	r18, 0x01	; 1
 f26:	80 40       	sbci	r24, 0x00	; 0
 f28:	90 40       	sbci	r25, 0x00	; 0
 f2a:	e1 f7       	brne	.-8      	; 0xf24 <main+0x20>
 f2c:	00 c0       	rjmp	.+0      	; 0xf2e <main+0x2a>
 f2e:	00 00       	nop
		_delay_ms(500);
		GLCD_PutBMP(anime_1);
 f30:	84 e5       	ldi	r24, 0x54	; 84
 f32:	94 e0       	ldi	r25, 0x04	; 4
 f34:	0e 94 49 07 	call	0xe92	; 0xe92 <GLCD_PutBMP>
 f38:	2f ef       	ldi	r18, 0xFF	; 255
 f3a:	89 e6       	ldi	r24, 0x69	; 105
 f3c:	98 e1       	ldi	r25, 0x18	; 24
 f3e:	21 50       	subi	r18, 0x01	; 1
 f40:	80 40       	sbci	r24, 0x00	; 0
 f42:	90 40       	sbci	r25, 0x00	; 0
 f44:	e1 f7       	brne	.-8      	; 0xf3e <main+0x3a>
 f46:	00 c0       	rjmp	.+0      	; 0xf48 <main+0x44>
 f48:	00 00       	nop
		_delay_ms(500);
		GLCD_PutBMP(panda);
 f4a:	84 e5       	ldi	r24, 0x54	; 84
 f4c:	90 e0       	ldi	r25, 0x00	; 0
 f4e:	0e 94 49 07 	call	0xe92	; 0xe92 <GLCD_PutBMP>
 f52:	2f ef       	ldi	r18, 0xFF	; 255
 f54:	89 e6       	ldi	r24, 0x69	; 105
 f56:	98 e1       	ldi	r25, 0x18	; 24
 f58:	21 50       	subi	r18, 0x01	; 1
 f5a:	80 40       	sbci	r24, 0x00	; 0
 f5c:	90 40       	sbci	r25, 0x00	; 0
 f5e:	e1 f7       	brne	.-8      	; 0xf58 <main+0x54>
 f60:	00 c0       	rjmp	.+0      	; 0xf62 <main+0x5e>
 f62:	00 00       	nop
 f64:	d8 cf       	rjmp	.-80     	; 0xf16 <main+0x12>

00000f66 <_exit>:
 f66:	f8 94       	cli

00000f68 <__stop_program>:
 f68:	ff cf       	rjmp	.-2      	; 0xf68 <__stop_program>
